target datalayout = "e-m:e-p270:32:32-p271:32:32-p272:64:64-i64:64-i128:128-f80:128-n8:16:32:64-S128"
target triple = "x86_64-pc-linux-gnu"

%struct.H5Z_object_t = type { i32, i32 }
%struct.H5VL_group_get_args_t = type { i32, %union.anon.2 }
%union.anon.2 = type { %struct.H5VL_group_get_info_args_t }
%struct.H5VL_group_get_info_args_t = type { %struct.H5VL_loc_params_t, ptr }
%struct.H5VL_loc_params_t = type { i32, i32, %union.anon.3 }
%union.anon.3 = type { %struct.H5VL_loc_by_idx }
%struct.H5VL_loc_by_idx = type { ptr, i32, i32, i64, i64 }
%struct.anon = type { i64 }

@.str = private unnamed_addr constant [97 x i8] c"generated/home/dtcxzyw/WorkSpace/Projects/compilers/llvm-opt-benchmark/bench/hdf5/hdf5/src/H5Z.c\00", align 1
@H5E_PLINE_g = external global i64, align 8
@H5E_ARGS_g = external global i64, align 8
@H5E_BADTYPE_g = external global i64, align 8
@H5E_CANTGET_g = external global i64, align 8
@__func__.H5Z__check_unregister_group_cb = private unnamed_addr constant [31 x i8] c"H5Z__check_unregister_group_cb\00", align 1
@.str.41 = private unnamed_addr constant [25 x i8] c"invalid group identifier\00", align 1
@H5P_LST_DATASET_XFER_ID_g = external global i64, align 8
@.str.42 = private unnamed_addr constant [40 x i8] c"unable to get group creation properties\00", align 1
@.str.43 = private unnamed_addr constant [39 x i8] c"can't get group creation property list\00", align 1
@.str.44 = private unnamed_addr constant [31 x i8] c"can't check filter in pipeline\00", align 1
@H5E_CANTDEC_g = external global i64, align 8
@.str.45 = private unnamed_addr constant [20 x i8] c"can't release plist\00", align 1
@H5P_CLS_OBJECT_CREATE_ID_g = external global i64, align 8
@__func__.H5Z__check_unregister = private unnamed_addr constant [22 x i8] c"H5Z__check_unregister\00", align 1
@H5E_BADID_g = external global i64, align 8
@.str.46 = private unnamed_addr constant [25 x i8] c"can't find object for ID\00", align 1

; Function Attrs: nounwind uwtable
define internal i32 @H5Z__check_unregister(i64 noundef %0, i32 noundef %1) #0 {
  %3 = alloca i64, align 8
  %4 = alloca i32, align 4
  %5 = alloca ptr, align 8
  %6 = alloca i32, align 4
  %7 = alloca i8, align 1
  store i64 %0, ptr %3, align 8
  store i32 %1, ptr %4, align 4
  store i32 0, ptr %6, align 4
  store i8 0, ptr %7, align 1
  %8 = load i64, ptr %3, align 8
  %9 = load i64, ptr @H5P_CLS_OBJECT_CREATE_ID_g, align 8
  %10 = call ptr @H5P_object_verify(i64 noundef %8, i64 noundef %9)
  store ptr %10, ptr %5, align 8
  %11 = icmp eq ptr null, %10
  br i1 %11, label %12, label %27

12:                                               ; preds = %2
  br label %13

13:                                               ; preds = %12
  br label %14

14:                                               ; preds = %13
  br label %15

15:                                               ; preds = %14
  %16 = load i64, ptr @H5E_PLINE_g, align 8
  %17 = load i64, ptr @H5E_BADID_g, align 8
  %18 = call i32 (ptr, ptr, i32, i64, i64, ptr, ...) @H5E_printf_stack(ptr noundef @.str, ptr noundef @__func__.H5Z__check_unregister, i32 noundef 467, i64 noundef %16, i64 noundef %17, ptr noundef @.str.46)
  br label %19

19:                                               ; preds = %15
  store i8 1, ptr %7, align 1
  %20 = load i8, ptr %7, align 1
  %21 = trunc i8 %20 to i1
  %22 = zext i1 %21 to i8
  store i8 %22, ptr %7, align 1
  br label %23

23:                                               ; preds = %19
  br label %24

24:                                               ; preds = %23
  store i32 -1, ptr %6, align 4
  br label %48

25:                                               ; No predecessors!
  br label %26

26:                                               ; preds = %25
  br label %27

27:                                               ; preds = %26, %2
  %28 = load ptr, ptr %5, align 8
  %29 = load i32, ptr %4, align 4
  %30 = call i32 @H5P_filter_in_pline(ptr noundef %28, i32 noundef %29)
  store i32 %30, ptr %6, align 4
  %31 = icmp slt i32 %30, 0
  br i1 %31, label %32, label %47

32:                                               ; preds = %27
  br label %33

33:                                               ; preds = %32
  br label %34

34:                                               ; preds = %33
  br label %35

35:                                               ; preds = %34
  %36 = load i64, ptr @H5E_PLINE_g, align 8
  %37 = load i64, ptr @H5E_CANTGET_g, align 8
  %38 = call i32 (ptr, ptr, i32, i64, i64, ptr, ...) @H5E_printf_stack(ptr noundef @.str, ptr noundef @__func__.H5Z__check_unregister, i32 noundef 471, i64 noundef %36, i64 noundef %37, ptr noundef @.str.44)
  br label %39

39:                                               ; preds = %35
  store i8 1, ptr %7, align 1
  %40 = load i8, ptr %7, align 1
  %41 = trunc i8 %40 to i1
  %42 = zext i1 %41 to i8
  store i8 %42, ptr %7, align 1
  br label %43

43:                                               ; preds = %39
  br label %44

44:                                               ; preds = %43
  store i32 -1, ptr %6, align 4
  br label %48

45:                                               ; No predecessors!
  br label %46

46:                                               ; preds = %45
  br label %47

47:                                               ; preds = %46, %27
  br label %48

48:                                               ; preds = %47, %44, %24
  %49 = load i32, ptr %6, align 4
  ret i32 %49
}

; Function Attrs: nounwind uwtable
define internal i32 @H5Z__check_unregister_group_cb(ptr noundef %0, i64 noundef %1, ptr noundef %2) #0 {
  %4 = alloca ptr, align 8
  %5 = alloca i64, align 8
  %6 = alloca ptr, align 8
  %7 = alloca i64, align 8
  %8 = alloca ptr, align 8
  %9 = alloca ptr, align 8
  %10 = alloca %struct.H5VL_group_get_args_t, align 8
  %11 = alloca i32, align 4
  %12 = alloca i32, align 4
  %13 = alloca i8, align 1
  store ptr %0, ptr %4, align 8
  store i64 %1, ptr %5, align 8
  store ptr %2, ptr %6, align 8
  store i64 -1, ptr %7, align 8
  %14 = load ptr, ptr %6, align 8
  store ptr %14, ptr %8, align 8
  store i32 0, ptr %11, align 4
  store i32 0, ptr %12, align 4
  store i8 0, ptr %13, align 1
  %15 = load i64, ptr %5, align 8
  %16 = call ptr @H5I_object_verify(i64 noundef %15, i32 noundef 2)
  store ptr %16, ptr %9, align 8
  %17 = icmp eq ptr null, %16
  br i1 %17, label %18, label %33

18:                                               ; preds = %3
  br label %19

19:                                               ; preds = %18
  br label %20

20:                                               ; preds = %19
  br label %21

21:                                               ; preds = %20
  %22 = load i64, ptr @H5E_ARGS_g, align 8
  %23 = load i64, ptr @H5E_BADTYPE_g, align 8
  %24 = call i32 (ptr, ptr, i32, i64, i64, ptr, ...) @H5E_printf_stack(ptr noundef @.str, ptr noundef @__func__.H5Z__check_unregister_group_cb, i32 noundef 505, i64 noundef %22, i64 noundef %23, ptr noundef @.str.41)
  br label %25

25:                                               ; preds = %21
  store i8 1, ptr %13, align 1
  %26 = load i8, ptr %13, align 1
  %27 = trunc i8 %26 to i1
  %28 = zext i1 %27 to i8
  store i8 %28, ptr %13, align 1
  br label %29

29:                                               ; preds = %25
  br label %30

30:                                               ; preds = %29
  store i32 -1, ptr %12, align 4
  br label %105

31:                                               ; No predecessors!
  br label %32

32:                                               ; preds = %31
  br label %33

33:                                               ; preds = %32, %3
  %34 = getelementptr inbounds %struct.H5VL_group_get_args_t, ptr %10, i32 0, i32 0
  store i32 0, ptr %34, align 8
  %35 = getelementptr inbounds %struct.H5VL_group_get_args_t, ptr %10, i32 0, i32 1
  %36 = getelementptr inbounds %struct.anon, ptr %35, i32 0, i32 0
  store i64 -1, ptr %36, align 8
  %37 = load ptr, ptr %9, align 8
  %38 = load i64, ptr @H5P_LST_DATASET_XFER_ID_g, align 8
  %39 = call i32 @H5VL_group_get(ptr noundef %37, ptr noundef %10, i64 noundef %38, ptr noundef null)
  %40 = icmp slt i32 %39, 0
  br i1 %40, label %41, label %56

41:                                               ; preds = %33
  br label %42

42:                                               ; preds = %41
  br label %43

43:                                               ; preds = %42
  br label %44

44:                                               ; preds = %43
  %45 = load i64, ptr @H5E_PLINE_g, align 8
  %46 = load i64, ptr @H5E_CANTGET_g, align 8
  %47 = call i32 (ptr, ptr, i32, i64, i64, ptr, ...) @H5E_printf_stack(ptr noundef @.str, ptr noundef @__func__.H5Z__check_unregister_group_cb, i32 noundef 513, i64 noundef %45, i64 noundef %46, ptr noundef @.str.42)
  br label %48

48:                                               ; preds = %44
  store i8 1, ptr %13, align 1
  %49 = load i8, ptr %13, align 1
  %50 = trunc i8 %49 to i1
  %51 = zext i1 %50 to i8
  store i8 %51, ptr %13, align 1
  br label %52

52:                                               ; preds = %48
  br label %53

53:                                               ; preds = %52
  store i32 -1, ptr %12, align 4
  br label %105

54:                                               ; No predecessors!
  br label %55

55:                                               ; preds = %54
  br label %56

56:                                               ; preds = %55, %33
  %57 = getelementptr inbounds %struct.H5VL_group_get_args_t, ptr %10, i32 0, i32 1
  %58 = getelementptr inbounds %struct.anon, ptr %57, i32 0, i32 0
  %59 = load i64, ptr %58, align 8
  store i64 %59, ptr %7, align 8
  %60 = icmp slt i64 %59, 0
  br i1 %60, label %61, label %76

61:                                               ; preds = %56
  br label %62

62:                                               ; preds = %61
  br label %63

63:                                               ; preds = %62
  br label %64

64:                                               ; preds = %63
  %65 = load i64, ptr @H5E_PLINE_g, align 8
  %66 = load i64, ptr @H5E_CANTGET_g, align 8
  %67 = call i32 (ptr, ptr, i32, i64, i64, ptr, ...) @H5E_printf_stack(ptr noundef @.str, ptr noundef @__func__.H5Z__check_unregister_group_cb, i32 noundef 516, i64 noundef %65, i64 noundef %66, ptr noundef @.str.43)
  br label %68

68:                                               ; preds = %64
  store i8 1, ptr %13, align 1
  %69 = load i8, ptr %13, align 1
  %70 = trunc i8 %69 to i1
  %71 = zext i1 %70 to i8
  store i8 %71, ptr %13, align 1
  br label %72

72:                                               ; preds = %68
  br label %73

73:                                               ; preds = %72
  store i32 -1, ptr %12, align 4
  br label %105

74:                                               ; No predecessors!
  br label %75

75:                                               ; preds = %74
  br label %76

76:                                               ; preds = %75, %56
  %77 = load i64, ptr %7, align 8
  %78 = load ptr, ptr %8, align 8
  %79 = getelementptr inbounds %struct.H5Z_object_t, ptr %78, i32 0, i32 0
  %80 = load i32, ptr %79, align 4
  %81 = call i32 @H5Z__check_unregister(i64 noundef %77, i32 noundef %80)
  store i32 %81, ptr %11, align 4
  %82 = icmp slt i32 %81, 0
  br i1 %82, label %83, label %98

83:                                               ; preds = %76
  br label %84

84:                                               ; preds = %83
  br label %85

85:                                               ; preds = %84
  br label %86

86:                                               ; preds = %85
  %87 = load i64, ptr @H5E_PLINE_g, align 8
  %88 = load i64, ptr @H5E_CANTGET_g, align 8
  %89 = call i32 (ptr, ptr, i32, i64, i64, ptr, ...) @H5E_printf_stack(ptr noundef @.str, ptr noundef @__func__.H5Z__check_unregister_group_cb, i32 noundef 520, i64 noundef %87, i64 noundef %88, ptr noundef @.str.44)
  br label %90

90:                                               ; preds = %86
  store i8 1, ptr %13, align 1
  %91 = load i8, ptr %13, align 1
  %92 = trunc i8 %91 to i1
  %93 = zext i1 %92 to i8
  store i8 %93, ptr %13, align 1
  br label %94

94:                                               ; preds = %90
  br label %95

95:                                               ; preds = %94
  store i32 -1, ptr %12, align 4
  br label %105

96:                                               ; No predecessors!
  br label %97

97:                                               ; preds = %96
  br label %98

98:                                               ; preds = %97, %76
  %99 = load i32, ptr %11, align 4
  %100 = icmp ne i32 %99, 0
  br i1 %100, label %101, label %104

101:                                              ; preds = %98
  %102 = load ptr, ptr %8, align 8
  %103 = getelementptr inbounds %struct.H5Z_object_t, ptr %102, i32 0, i32 1
  store i32 1, ptr %103, align 4
  store i32 1, ptr %12, align 4
  br label %104

104:                                              ; preds = %101, %98
  br label %105

105:                                              ; preds = %104, %95, %73, %53, %30
  %106 = load i64, ptr %7, align 8
  %107 = icmp sgt i64 %106, 0
  br i1 %107, label %108, label %126

108:                                              ; preds = %105
  %109 = load i64, ptr %7, align 8
  %110 = call i32 @H5I_dec_app_ref(i64 noundef %109)
  %111 = icmp slt i32 %110, 0
  br i1 %111, label %112, label %125

112:                                              ; preds = %108
  br label %113

113:                                              ; preds = %112
  br label %114

114:                                              ; preds = %113
  br label %115

115:                                              ; preds = %114
  %116 = load i64, ptr @H5E_PLINE_g, align 8
  %117 = load i64, ptr @H5E_CANTDEC_g, align 8
  %118 = call i32 (ptr, ptr, i32, i64, i64, ptr, ...) @H5E_printf_stack(ptr noundef @.str, ptr noundef @__func__.H5Z__check_unregister_group_cb, i32 noundef 533, i64 noundef %116, i64 noundef %117, ptr noundef @.str.45)
  br label %119

119:                                              ; preds = %115
  store i8 1, ptr %13, align 1
  %120 = load i8, ptr %13, align 1
  %121 = trunc i8 %120 to i1
  %122 = zext i1 %121 to i8
  store i8 %122, ptr %13, align 1
  br label %123

123:                                              ; preds = %119
  store i32 -1, ptr %12, align 4
  br label %124

124:                                              ; preds = %123
  br label %125

125:                                              ; preds = %124, %108
  br label %126

126:                                              ; preds = %125, %105
  %127 = load i32, ptr %12, align 4
  ret i32 %127
}